
week9_2.elf:     file format elf32-avr

Sections:
Idx Name          Size      VMA       LMA       File off  Algn
  0 .data         000001ec  00800100  0000036e  000003e2  2**0
                  CONTENTS, ALLOC, LOAD, DATA
  1 .text         0000036e  00000000  00000000  00000074  2**1
                  CONTENTS, ALLOC, LOAD, READONLY, CODE
  2 .comment      00000030  00000000  00000000  000005ce  2**0
                  CONTENTS, READONLY
  3 .note.gnu.avr.deviceinfo 0000003c  00000000  00000000  00000600  2**2
                  CONTENTS, READONLY
  4 .debug_info   00000780  00000000  00000000  0000063c  2**0
                  CONTENTS, READONLY, DEBUGGING
  5 .debug_abbrev 00000718  00000000  00000000  00000dbc  2**0
                  CONTENTS, READONLY, DEBUGGING
  6 .debug_line   0000016a  00000000  00000000  000014d4  2**0
                  CONTENTS, READONLY, DEBUGGING
  7 .debug_str    0000027d  00000000  00000000  0000163e  2**0
                  CONTENTS, READONLY, DEBUGGING

Disassembly of section .text:

00000000 <__vectors>:
   0:	45 c0       	rjmp	.+138    	; 0x8c <__ctors_end>
   2:	00 00       	nop
   4:	58 c0       	rjmp	.+176    	; 0xb6 <__bad_interrupt>
   6:	00 00       	nop
   8:	56 c0       	rjmp	.+172    	; 0xb6 <__bad_interrupt>
   a:	00 00       	nop
   c:	54 c0       	rjmp	.+168    	; 0xb6 <__bad_interrupt>
   e:	00 00       	nop
  10:	52 c0       	rjmp	.+164    	; 0xb6 <__bad_interrupt>
  12:	00 00       	nop
  14:	50 c0       	rjmp	.+160    	; 0xb6 <__bad_interrupt>
  16:	00 00       	nop
  18:	4e c0       	rjmp	.+156    	; 0xb6 <__bad_interrupt>
  1a:	00 00       	nop
  1c:	4c c0       	rjmp	.+152    	; 0xb6 <__bad_interrupt>
  1e:	00 00       	nop
  20:	4a c0       	rjmp	.+148    	; 0xb6 <__bad_interrupt>
  22:	00 00       	nop
  24:	48 c0       	rjmp	.+144    	; 0xb6 <__bad_interrupt>
  26:	00 00       	nop
  28:	46 c0       	rjmp	.+140    	; 0xb6 <__bad_interrupt>
  2a:	00 00       	nop
  2c:	44 c0       	rjmp	.+136    	; 0xb6 <__bad_interrupt>
  2e:	00 00       	nop
  30:	42 c0       	rjmp	.+132    	; 0xb6 <__bad_interrupt>
  32:	00 00       	nop
  34:	40 c0       	rjmp	.+128    	; 0xb6 <__bad_interrupt>
  36:	00 00       	nop
  38:	3e c0       	rjmp	.+124    	; 0xb6 <__bad_interrupt>
  3a:	00 00       	nop
  3c:	3c c0       	rjmp	.+120    	; 0xb6 <__bad_interrupt>
  3e:	00 00       	nop
  40:	3a c0       	rjmp	.+116    	; 0xb6 <__bad_interrupt>
  42:	00 00       	nop
  44:	38 c0       	rjmp	.+112    	; 0xb6 <__bad_interrupt>
  46:	00 00       	nop
  48:	36 c0       	rjmp	.+108    	; 0xb6 <__bad_interrupt>
  4a:	00 00       	nop
  4c:	34 c0       	rjmp	.+104    	; 0xb6 <__bad_interrupt>
  4e:	00 00       	nop
  50:	32 c0       	rjmp	.+100    	; 0xb6 <__bad_interrupt>
  52:	00 00       	nop
  54:	30 c0       	rjmp	.+96     	; 0xb6 <__bad_interrupt>
  56:	00 00       	nop
  58:	2e c0       	rjmp	.+92     	; 0xb6 <__bad_interrupt>
  5a:	00 00       	nop
  5c:	2c c0       	rjmp	.+88     	; 0xb6 <__bad_interrupt>
  5e:	00 00       	nop
  60:	2a c0       	rjmp	.+84     	; 0xb6 <__bad_interrupt>
  62:	00 00       	nop
  64:	28 c0       	rjmp	.+80     	; 0xb6 <__bad_interrupt>
  66:	00 00       	nop
  68:	26 c0       	rjmp	.+76     	; 0xb6 <__bad_interrupt>
  6a:	00 00       	nop
  6c:	24 c0       	rjmp	.+72     	; 0xb6 <__bad_interrupt>
  6e:	00 00       	nop
  70:	22 c0       	rjmp	.+68     	; 0xb6 <__bad_interrupt>
  72:	00 00       	nop
  74:	20 c0       	rjmp	.+64     	; 0xb6 <__bad_interrupt>
  76:	00 00       	nop
  78:	1e c0       	rjmp	.+60     	; 0xb6 <__bad_interrupt>
  7a:	00 00       	nop
  7c:	1c c0       	rjmp	.+56     	; 0xb6 <__bad_interrupt>
  7e:	00 00       	nop
  80:	1a c0       	rjmp	.+52     	; 0xb6 <__bad_interrupt>
  82:	00 00       	nop
  84:	18 c0       	rjmp	.+48     	; 0xb6 <__bad_interrupt>
  86:	00 00       	nop
  88:	16 c0       	rjmp	.+44     	; 0xb6 <__bad_interrupt>
	...

0000008c <__ctors_end>:
  8c:	11 24       	eor	r1, r1
  8e:	1f be       	out	0x3f, r1	; 63
  90:	cf ef       	ldi	r28, 0xFF	; 255
  92:	d0 e1       	ldi	r29, 0x10	; 16
  94:	de bf       	out	0x3e, r29	; 62
  96:	cd bf       	out	0x3d, r28	; 61

00000098 <__do_copy_data>:
  98:	12 e0       	ldi	r17, 0x02	; 2
  9a:	a0 e0       	ldi	r26, 0x00	; 0
  9c:	b1 e0       	ldi	r27, 0x01	; 1
  9e:	ee e6       	ldi	r30, 0x6E	; 110
  a0:	f3 e0       	ldi	r31, 0x03	; 3
  a2:	00 e0       	ldi	r16, 0x00	; 0
  a4:	0b bf       	out	0x3b, r16	; 59
  a6:	02 c0       	rjmp	.+4      	; 0xac <__do_copy_data+0x14>
  a8:	07 90       	elpm	r0, Z+
  aa:	0d 92       	st	X+, r0
  ac:	ac 3e       	cpi	r26, 0xEC	; 236
  ae:	b1 07       	cpc	r27, r17
  b0:	d9 f7       	brne	.-10     	; 0xa8 <__do_copy_data+0x10>
  b2:	04 d1       	rcall	.+520    	; 0x2bc <main>
  b4:	5a c1       	rjmp	.+692    	; 0x36a <_exit>

000000b6 <__bad_interrupt>:
  b6:	a4 cf       	rjmp	.-184    	; 0x0 <__vectors>

000000b8 <cmd_l>:
  b8:	1d 9a       	sbi	0x03, 5	; 3
  ba:	95 e3       	ldi	r25, 0x35	; 53
  bc:	9a 95       	dec	r25
  be:	f1 f7       	brne	.-4      	; 0xbc <cmd_l+0x4>
  c0:	00 00       	nop
  c2:	1c 98       	cbi	0x03, 4	; 3
  c4:	1e 98       	cbi	0x03, 6	; 3
  c6:	1f 9a       	sbi	0x03, 7	; 3
  c8:	8b bb       	out	0x1b, r24	; 27
  ca:	85 e3       	ldi	r24, 0x35	; 53
  cc:	8a 95       	dec	r24
  ce:	f1 f7       	brne	.-4      	; 0xcc <cmd_l+0x14>
  d0:	00 00       	nop
  d2:	1d 98       	cbi	0x03, 5	; 3
  d4:	08 95       	ret

000000d6 <cmd_r>:
  d6:	1d 9a       	sbi	0x03, 5	; 3
  d8:	95 e3       	ldi	r25, 0x35	; 53
  da:	9a 95       	dec	r25
  dc:	f1 f7       	brne	.-4      	; 0xda <cmd_r+0x4>
  de:	00 00       	nop
  e0:	1c 98       	cbi	0x03, 4	; 3
  e2:	1e 9a       	sbi	0x03, 6	; 3
  e4:	1f 98       	cbi	0x03, 7	; 3
  e6:	8b bb       	out	0x1b, r24	; 27
  e8:	85 e3       	ldi	r24, 0x35	; 53
  ea:	8a 95       	dec	r24
  ec:	f1 f7       	brne	.-4      	; 0xea <cmd_r+0x14>
  ee:	00 00       	nop
  f0:	1d 98       	cbi	0x03, 5	; 3
  f2:	08 95       	ret

000000f4 <cmd_lr>:
  f4:	1d 9a       	sbi	0x03, 5	; 3
  f6:	95 e3       	ldi	r25, 0x35	; 53
  f8:	9a 95       	dec	r25
  fa:	f1 f7       	brne	.-4      	; 0xf8 <cmd_lr+0x4>
  fc:	00 00       	nop
  fe:	1c 98       	cbi	0x03, 4	; 3
 100:	1e 9a       	sbi	0x03, 6	; 3
 102:	1f 9a       	sbi	0x03, 7	; 3
 104:	8b bb       	out	0x1b, r24	; 27
 106:	85 e3       	ldi	r24, 0x35	; 53
 108:	8a 95       	dec	r24
 10a:	f1 f7       	brne	.-4      	; 0x108 <cmd_lr+0x14>
 10c:	00 00       	nop
 10e:	1d 98       	cbi	0x03, 5	; 3
 110:	08 95       	ret

00000112 <data_l>:
 112:	1d 9a       	sbi	0x03, 5	; 3
 114:	95 e3       	ldi	r25, 0x35	; 53
 116:	9a 95       	dec	r25
 118:	f1 f7       	brne	.-4      	; 0x116 <data_l+0x4>
 11a:	00 00       	nop
 11c:	1c 9a       	sbi	0x03, 4	; 3
 11e:	1e 98       	cbi	0x03, 6	; 3
 120:	1f 9a       	sbi	0x03, 7	; 3
 122:	8b bb       	out	0x1b, r24	; 27
 124:	85 e3       	ldi	r24, 0x35	; 53
 126:	8a 95       	dec	r24
 128:	f1 f7       	brne	.-4      	; 0x126 <data_l+0x14>
 12a:	00 00       	nop
 12c:	1d 98       	cbi	0x03, 5	; 3
 12e:	08 95       	ret

00000130 <data_r>:
 130:	1d 9a       	sbi	0x03, 5	; 3
 132:	95 e3       	ldi	r25, 0x35	; 53
 134:	9a 95       	dec	r25
 136:	f1 f7       	brne	.-4      	; 0x134 <data_r+0x4>
 138:	00 00       	nop
 13a:	1c 9a       	sbi	0x03, 4	; 3
 13c:	1e 9a       	sbi	0x03, 6	; 3
 13e:	1f 98       	cbi	0x03, 7	; 3
 140:	8b bb       	out	0x1b, r24	; 27
 142:	85 e3       	ldi	r24, 0x35	; 53
 144:	8a 95       	dec	r24
 146:	f1 f7       	brne	.-4      	; 0x144 <data_r+0x14>
 148:	00 00       	nop
 14a:	1d 98       	cbi	0x03, 5	; 3
 14c:	08 95       	ret

0000014e <data_lr>:
 14e:	1d 9a       	sbi	0x03, 5	; 3
 150:	95 e3       	ldi	r25, 0x35	; 53
 152:	9a 95       	dec	r25
 154:	f1 f7       	brne	.-4      	; 0x152 <data_lr+0x4>
 156:	00 00       	nop
 158:	1c 9a       	sbi	0x03, 4	; 3
 15a:	1e 9a       	sbi	0x03, 6	; 3
 15c:	1f 9a       	sbi	0x03, 7	; 3
 15e:	8b bb       	out	0x1b, r24	; 27
 160:	85 e3       	ldi	r24, 0x35	; 53
 162:	8a 95       	dec	r24
 164:	f1 f7       	brne	.-4      	; 0x162 <data_lr+0x14>
 166:	00 00       	nop
 168:	1d 98       	cbi	0x03, 5	; 3
 16a:	08 95       	ret

0000016c <display_char>:
 16c:	0f 93       	push	r16
 16e:	1f 93       	push	r17
 170:	cf 93       	push	r28
 172:	df 93       	push	r29
 174:	16 2f       	mov	r17, r22
 176:	c4 2f       	mov	r28, r20
 178:	88 54       	subi	r24, 0x48	; 72
 17a:	bc df       	rcall	.-136    	; 0xf4 <cmd_lr>
 17c:	81 2f       	mov	r24, r17
 17e:	1a 30       	cpi	r17, 0x0A	; 10
 180:	30 f4       	brcc	.+12     	; 0x18e <display_char+0x22>
 182:	88 0f       	add	r24, r24
 184:	81 0f       	add	r24, r17
 186:	88 0f       	add	r24, r24
 188:	8c 5b       	subi	r24, 0xBC	; 188
 18a:	96 df       	rcall	.-212    	; 0xb8 <cmd_l>
 18c:	08 c0       	rjmp	.+16     	; 0x19e <display_char+0x32>
 18e:	90 e0       	ldi	r25, 0x00	; 0
 190:	0a 97       	sbiw	r24, 0x0a	; 10
 192:	98 2f       	mov	r25, r24
 194:	99 0f       	add	r25, r25
 196:	89 0f       	add	r24, r25
 198:	88 0f       	add	r24, r24
 19a:	80 5c       	subi	r24, 0xC0	; 192
 19c:	9c df       	rcall	.-200    	; 0xd6 <cmd_r>
 19e:	85 e0       	ldi	r24, 0x05	; 5
 1a0:	c8 9f       	mul	r28, r24
 1a2:	e0 01       	movw	r28, r0
 1a4:	11 24       	eor	r1, r1
 1a6:	c0 5a       	subi	r28, 0xA0	; 160
 1a8:	df 4f       	sbci	r29, 0xFF	; 255
 1aa:	05 e0       	ldi	r16, 0x05	; 5
 1ac:	88 81       	ld	r24, Y
 1ae:	1a 30       	cpi	r17, 0x0A	; 10
 1b0:	10 f4       	brcc	.+4      	; 0x1b6 <display_char+0x4a>
 1b2:	af df       	rcall	.-162    	; 0x112 <data_l>
 1b4:	01 c0       	rjmp	.+2      	; 0x1b8 <display_char+0x4c>
 1b6:	bc df       	rcall	.-136    	; 0x130 <data_r>
 1b8:	01 50       	subi	r16, 0x01	; 1
 1ba:	21 96       	adiw	r28, 0x01	; 1
 1bc:	01 11       	cpse	r16, r1
 1be:	f6 cf       	rjmp	.-20     	; 0x1ac <display_char+0x40>
 1c0:	80 e0       	ldi	r24, 0x00	; 0
 1c2:	1a 30       	cpi	r17, 0x0A	; 10
 1c4:	28 f4       	brcc	.+10     	; 0x1d0 <display_char+0x64>
 1c6:	df 91       	pop	r29
 1c8:	cf 91       	pop	r28
 1ca:	1f 91       	pop	r17
 1cc:	0f 91       	pop	r16
 1ce:	a1 cf       	rjmp	.-190    	; 0x112 <data_l>
 1d0:	df 91       	pop	r29
 1d2:	cf 91       	pop	r28
 1d4:	1f 91       	pop	r17
 1d6:	0f 91       	pop	r16
 1d8:	ab cf       	rjmp	.-170    	; 0x130 <data_r>

000001da <display_string>:
 1da:	ef 92       	push	r14
 1dc:	ff 92       	push	r15
 1de:	0f 93       	push	r16
 1e0:	1f 93       	push	r17
 1e2:	cf 93       	push	r28
 1e4:	df 93       	push	r29
 1e6:	f6 2e       	mov	r15, r22
 1e8:	ea 01       	movw	r28, r20
 1ea:	88 54       	subi	r24, 0x48	; 72
 1ec:	83 df       	rcall	.-250    	; 0xf4 <cmd_lr>
 1ee:	89 e0       	ldi	r24, 0x09	; 9
 1f0:	8f 15       	cp	r24, r15
 1f2:	38 f0       	brcs	.+14     	; 0x202 <display_string+0x28>
 1f4:	8f 2d       	mov	r24, r15
 1f6:	88 0f       	add	r24, r24
 1f8:	8f 0d       	add	r24, r15
 1fa:	88 0f       	add	r24, r24
 1fc:	8c 5b       	subi	r24, 0xBC	; 188
 1fe:	5c df       	rcall	.-328    	; 0xb8 <cmd_l>
 200:	09 c0       	rjmp	.+18     	; 0x214 <display_string+0x3a>
 202:	8f 2d       	mov	r24, r15
 204:	90 e0       	ldi	r25, 0x00	; 0
 206:	0a 97       	sbiw	r24, 0x0a	; 10
 208:	98 2f       	mov	r25, r24
 20a:	99 0f       	add	r25, r25
 20c:	89 0f       	add	r24, r25
 20e:	88 0f       	add	r24, r24
 210:	80 5c       	subi	r24, 0xC0	; 192
 212:	61 df       	rcall	.-318    	; 0xd6 <cmd_r>
 214:	85 e0       	ldi	r24, 0x05	; 5
 216:	e8 2e       	mov	r14, r24
 218:	88 81       	ld	r24, Y
 21a:	88 23       	and	r24, r24
 21c:	b1 f1       	breq	.+108    	; 0x28a <display_string+0xb0>
 21e:	9a e0       	ldi	r25, 0x0A	; 10
 220:	f9 12       	cpse	r15, r25
 222:	02 c0       	rjmp	.+4      	; 0x228 <display_string+0x4e>
 224:	80 e4       	ldi	r24, 0x40	; 64
 226:	57 df       	rcall	.-338    	; 0xd6 <cmd_r>
 228:	00 e0       	ldi	r16, 0x00	; 0
 22a:	10 e0       	ldi	r17, 0x00	; 0
 22c:	88 81       	ld	r24, Y
 22e:	99 e0       	ldi	r25, 0x09	; 9
 230:	9f 15       	cp	r25, r15
 232:	70 f0       	brcs	.+28     	; 0x250 <display_string+0x76>
 234:	90 e0       	ldi	r25, 0x00	; 0
 236:	80 97       	sbiw	r24, 0x20	; 32
 238:	e8 9e       	mul	r14, r24
 23a:	f0 01       	movw	r30, r0
 23c:	e9 9e       	mul	r14, r25
 23e:	f0 0d       	add	r31, r0
 240:	11 24       	eor	r1, r1
 242:	e0 50       	subi	r30, 0x00	; 0
 244:	ff 4f       	sbci	r31, 0xFF	; 255
 246:	e0 0f       	add	r30, r16
 248:	f1 1f       	adc	r31, r17
 24a:	80 81       	ld	r24, Z
 24c:	62 df       	rcall	.-316    	; 0x112 <data_l>
 24e:	0d c0       	rjmp	.+26     	; 0x26a <display_string+0x90>
 250:	90 e0       	ldi	r25, 0x00	; 0
 252:	80 97       	sbiw	r24, 0x20	; 32
 254:	e8 9e       	mul	r14, r24
 256:	f0 01       	movw	r30, r0
 258:	e9 9e       	mul	r14, r25
 25a:	f0 0d       	add	r31, r0
 25c:	11 24       	eor	r1, r1
 25e:	e0 50       	subi	r30, 0x00	; 0
 260:	ff 4f       	sbci	r31, 0xFF	; 255
 262:	e0 0f       	add	r30, r16
 264:	f1 1f       	adc	r31, r17
 266:	80 81       	ld	r24, Z
 268:	63 df       	rcall	.-314    	; 0x130 <data_r>
 26a:	0f 5f       	subi	r16, 0xFF	; 255
 26c:	1f 4f       	sbci	r17, 0xFF	; 255
 26e:	05 30       	cpi	r16, 0x05	; 5
 270:	11 05       	cpc	r17, r1
 272:	e1 f6       	brne	.-72     	; 0x22c <display_string+0x52>
 274:	89 e0       	ldi	r24, 0x09	; 9
 276:	8f 15       	cp	r24, r15
 278:	18 f0       	brcs	.+6      	; 0x280 <display_string+0xa6>
 27a:	80 e0       	ldi	r24, 0x00	; 0
 27c:	4a df       	rcall	.-364    	; 0x112 <data_l>
 27e:	02 c0       	rjmp	.+4      	; 0x284 <display_string+0xaa>
 280:	80 e0       	ldi	r24, 0x00	; 0
 282:	56 df       	rcall	.-340    	; 0x130 <data_r>
 284:	21 96       	adiw	r28, 0x01	; 1
 286:	f3 94       	inc	r15
 288:	c7 cf       	rjmp	.-114    	; 0x218 <display_string+0x3e>
 28a:	df 91       	pop	r29
 28c:	cf 91       	pop	r28
 28e:	1f 91       	pop	r17
 290:	0f 91       	pop	r16
 292:	ff 90       	pop	r15
 294:	ef 90       	pop	r14
 296:	08 95       	ret

00000298 <lcd_clear>:
 298:	cf 93       	push	r28
 29a:	df 93       	push	r29
 29c:	c8 eb       	ldi	r28, 0xB8	; 184
 29e:	8c 2f       	mov	r24, r28
 2a0:	29 df       	rcall	.-430    	; 0xf4 <cmd_lr>
 2a2:	80 e4       	ldi	r24, 0x40	; 64
 2a4:	27 df       	rcall	.-434    	; 0xf4 <cmd_lr>
 2a6:	d0 e4       	ldi	r29, 0x40	; 64
 2a8:	80 e0       	ldi	r24, 0x00	; 0
 2aa:	51 df       	rcall	.-350    	; 0x14e <data_lr>
 2ac:	d1 50       	subi	r29, 0x01	; 1
 2ae:	e1 f7       	brne	.-8      	; 0x2a8 <lcd_clear+0x10>
 2b0:	cf 5f       	subi	r28, 0xFF	; 255
 2b2:	c0 3c       	cpi	r28, 0xC0	; 192
 2b4:	a1 f7       	brne	.-24     	; 0x29e <lcd_clear+0x6>
 2b6:	df 91       	pop	r29
 2b8:	cf 91       	pop	r28
 2ba:	08 95       	ret

000002bc <main>:
 2bc:	8f ef       	ldi	r24, 0xFF	; 255
 2be:	8a bb       	out	0x1a, r24	; 26
 2c0:	88 bb       	out	0x18, r24	; 24
 2c2:	87 bb       	out	0x17, r24	; 23
 2c4:	11 ba       	out	0x11, r1	; 17
 2c6:	82 b9       	out	0x02, r24	; 2
 2c8:	10 92 65 00 	sts	0x0065, r1	; 0x800065 <__TEXT_REGION_LENGTH__+0x7e0065>
 2cc:	80 93 64 00 	sts	0x0064, r24	; 0x800064 <__TEXT_REGION_LENGTH__+0x7e0064>
 2d0:	8f e3       	ldi	r24, 0x3F	; 63
 2d2:	10 df       	rcall	.-480    	; 0xf4 <cmd_lr>
 2d4:	88 eb       	ldi	r24, 0xB8	; 184
 2d6:	0e df       	rcall	.-484    	; 0xf4 <cmd_lr>
 2d8:	80 e4       	ldi	r24, 0x40	; 64
 2da:	0c df       	rcall	.-488    	; 0xf4 <cmd_lr>
 2dc:	48 e4       	ldi	r20, 0x48	; 72
 2de:	60 e0       	ldi	r22, 0x00	; 0
 2e0:	80 e0       	ldi	r24, 0x00	; 0
 2e2:	44 df       	rcall	.-376    	; 0x16c <display_char>
 2e4:	45 e6       	ldi	r20, 0x65	; 101
 2e6:	61 e0       	ldi	r22, 0x01	; 1
 2e8:	80 e0       	ldi	r24, 0x00	; 0
 2ea:	40 df       	rcall	.-384    	; 0x16c <display_char>
 2ec:	4c e6       	ldi	r20, 0x6C	; 108
 2ee:	62 e0       	ldi	r22, 0x02	; 2
 2f0:	80 e0       	ldi	r24, 0x00	; 0
 2f2:	3c df       	rcall	.-392    	; 0x16c <display_char>
 2f4:	4c e6       	ldi	r20, 0x6C	; 108
 2f6:	63 e0       	ldi	r22, 0x03	; 3
 2f8:	80 e0       	ldi	r24, 0x00	; 0
 2fa:	38 df       	rcall	.-400    	; 0x16c <display_char>
 2fc:	4f e6       	ldi	r20, 0x6F	; 111
 2fe:	64 e0       	ldi	r22, 0x04	; 4
 300:	80 e0       	ldi	r24, 0x00	; 0
 302:	34 df       	rcall	.-408    	; 0x16c <display_char>
 304:	48 e4       	ldi	r20, 0x48	; 72
 306:	65 e0       	ldi	r22, 0x05	; 5
 308:	81 e0       	ldi	r24, 0x01	; 1
 30a:	30 df       	rcall	.-416    	; 0x16c <display_char>
 30c:	45 e6       	ldi	r20, 0x65	; 101
 30e:	66 e0       	ldi	r22, 0x06	; 6
 310:	81 e0       	ldi	r24, 0x01	; 1
 312:	2c df       	rcall	.-424    	; 0x16c <display_char>
 314:	4c e6       	ldi	r20, 0x6C	; 108
 316:	67 e0       	ldi	r22, 0x07	; 7
 318:	81 e0       	ldi	r24, 0x01	; 1
 31a:	28 df       	rcall	.-432    	; 0x16c <display_char>
 31c:	4c e6       	ldi	r20, 0x6C	; 108
 31e:	68 e0       	ldi	r22, 0x08	; 8
 320:	81 e0       	ldi	r24, 0x01	; 1
 322:	24 df       	rcall	.-440    	; 0x16c <display_char>
 324:	4f e6       	ldi	r20, 0x6F	; 111
 326:	69 e0       	ldi	r22, 0x09	; 9
 328:	81 e0       	ldi	r24, 0x01	; 1
 32a:	20 df       	rcall	.-448    	; 0x16c <display_char>
 32c:	40 e2       	ldi	r20, 0x20	; 32
 32e:	6a e0       	ldi	r22, 0x0A	; 10
 330:	81 e0       	ldi	r24, 0x01	; 1
 332:	1c df       	rcall	.-456    	; 0x16c <display_char>
 334:	47 e5       	ldi	r20, 0x57	; 87
 336:	6b e0       	ldi	r22, 0x0B	; 11
 338:	81 e0       	ldi	r24, 0x01	; 1
 33a:	18 df       	rcall	.-464    	; 0x16c <display_char>
 33c:	4f e6       	ldi	r20, 0x6F	; 111
 33e:	6c e0       	ldi	r22, 0x0C	; 12
 340:	81 e0       	ldi	r24, 0x01	; 1
 342:	14 df       	rcall	.-472    	; 0x16c <display_char>
 344:	42 e7       	ldi	r20, 0x72	; 114
 346:	6d e0       	ldi	r22, 0x0D	; 13
 348:	81 e0       	ldi	r24, 0x01	; 1
 34a:	10 df       	rcall	.-480    	; 0x16c <display_char>
 34c:	4c e6       	ldi	r20, 0x6C	; 108
 34e:	6e e0       	ldi	r22, 0x0E	; 14
 350:	81 e0       	ldi	r24, 0x01	; 1
 352:	0c df       	rcall	.-488    	; 0x16c <display_char>
 354:	44 e6       	ldi	r20, 0x64	; 100
 356:	6f e0       	ldi	r22, 0x0F	; 15
 358:	81 e0       	ldi	r24, 0x01	; 1
 35a:	08 df       	rcall	.-496    	; 0x16c <display_char>
 35c:	9d df       	rcall	.-198    	; 0x298 <lcd_clear>
 35e:	4b ed       	ldi	r20, 0xDB	; 219
 360:	52 e0       	ldi	r21, 0x02	; 2
 362:	60 e0       	ldi	r22, 0x00	; 0
 364:	82 e0       	ldi	r24, 0x02	; 2
 366:	39 df       	rcall	.-398    	; 0x1da <display_string>
 368:	ff cf       	rjmp	.-2      	; 0x368 <main+0xac>

0000036a <_exit>:
 36a:	f8 94       	cli

0000036c <__stop_program>:
 36c:	ff cf       	rjmp	.-2      	; 0x36c <__stop_program>
